target datalayout = "e-m:e-p270:32:32-p271:32:32-p272:64:64-i64:64-i128:128-f80:128-n8:16:32:64-S128"
target triple = "x86_64-pc-linux-gnu"

@memOut = internal global i32 0, align 4
@maxQueuePages = internal global i32 0, align 4
@queuePages = internal global ptr null, align 8
@queuePage = internal global i32 0, align 4
@queuePageSize = internal global i32 2048, align 4
@currentQueuePage = internal global ptr null, align 8
@queuePageIndex = internal global i32 0, align 4

; Function Attrs: nounwind uwtable
define internal void @ResizeQueuePages() #0 {
  %1 = alloca i32, align 4
  %2 = alloca ptr, align 8
  %3 = alloca i32, align 4
  call void @llvm.lifetime.start.p0(i64 4, ptr %1) #5
  call void @llvm.lifetime.start.p0(i64 8, ptr %2) #5
  %4 = load i32, ptr @queuePage, align 4, !tbaa !10
  %5 = add nsw i32 %4, 1
  store i32 %5, ptr @queuePage, align 4, !tbaa !10
  %6 = load i32, ptr @queuePage, align 4, !tbaa !10
  %7 = load i32, ptr @maxQueuePages, align 4, !tbaa !10
  %8 = icmp eq i32 %6, %7
  br i1 %8, label %9, label %80

9:                                                ; preds = %0
  %10 = load i32, ptr @maxQueuePages, align 4, !tbaa !10
  %11 = add nsw i32 %10, 128
  %12 = sext i32 %11 to i64
  %13 = mul i64 8, %12
  %14 = call noalias ptr @malloc(i64 noundef %13) #6
  store ptr %14, ptr %2, align 8, !tbaa !60
  %15 = load ptr, ptr %2, align 8, !tbaa !60
  %16 = icmp eq ptr %15, null
  br i1 %16, label %17, label %51

17:                                               ; preds = %9
  store i32 0, ptr %1, align 4, !tbaa !10
  br label %18

18:                                               ; preds = %41, %17
  %19 = load i32, ptr %1, align 4, !tbaa !10
  %20 = load i32, ptr @queuePage, align 4, !tbaa !10
  %21 = icmp slt i32 %19, %20
  br i1 %21, label %22, label %44

22:                                               ; preds = %18
  %23 = load ptr, ptr @queuePages, align 8, !tbaa !60
  %24 = load i32, ptr %1, align 4, !tbaa !10
  %25 = sext i32 %24 to i64
  %26 = getelementptr inbounds ptr, ptr %23, i64 %25
  %27 = load ptr, ptr %26, align 8, !tbaa !62
  %28 = icmp ne ptr %27, null
  br i1 %28, label %29, label %39

29:                                               ; preds = %22
  %30 = load ptr, ptr @queuePages, align 8, !tbaa !60
  %31 = load i32, ptr %1, align 4, !tbaa !10
  %32 = sext i32 %31 to i64
  %33 = getelementptr inbounds ptr, ptr %30, i64 %32
  %34 = load ptr, ptr %33, align 8, !tbaa !62
  call void @free(ptr noundef %34) #5
  %35 = load ptr, ptr @queuePages, align 8, !tbaa !60
  %36 = load i32, ptr %1, align 4, !tbaa !10
  %37 = sext i32 %36 to i64
  %38 = getelementptr inbounds ptr, ptr %35, i64 %37
  store ptr null, ptr %38, align 8, !tbaa !62
  br label %40

39:                                               ; preds = %22
  br label %40

40:                                               ; preds = %39, %29
  br label %41

41:                                               ; preds = %40
  %42 = load i32, ptr %1, align 4, !tbaa !10
  %43 = add nsw i32 %42, 1
  store i32 %43, ptr %1, align 4, !tbaa !10
  br label %18, !llvm.loop !89

44:                                               ; preds = %18
  %45 = load ptr, ptr @queuePages, align 8, !tbaa !60
  %46 = icmp ne ptr %45, null
  br i1 %46, label %47, label %49

47:                                               ; preds = %44
  %48 = load ptr, ptr @queuePages, align 8, !tbaa !60
  call void @free(ptr noundef %48) #5
  store ptr null, ptr @queuePages, align 8, !tbaa !60
  br label %50

49:                                               ; preds = %44
  br label %50

50:                                               ; preds = %49, %47
  store i32 1, ptr @memOut, align 4, !tbaa !10
  store i32 1, ptr %3, align 4
  br label %126

51:                                               ; preds = %9
  store i32 0, ptr %1, align 4, !tbaa !10
  br label %52

52:                                               ; preds = %66, %51
  %53 = load i32, ptr %1, align 4, !tbaa !10
  %54 = load i32, ptr @maxQueuePages, align 4, !tbaa !10
  %55 = icmp slt i32 %53, %54
  br i1 %55, label %56, label %69

56:                                               ; preds = %52
  %57 = load ptr, ptr @queuePages, align 8, !tbaa !60
  %58 = load i32, ptr %1, align 4, !tbaa !10
  %59 = sext i32 %58 to i64
  %60 = getelementptr inbounds ptr, ptr %57, i64 %59
  %61 = load ptr, ptr %60, align 8, !tbaa !62
  %62 = load ptr, ptr %2, align 8, !tbaa !60
  %63 = load i32, ptr %1, align 4, !tbaa !10
  %64 = sext i32 %63 to i64
  %65 = getelementptr inbounds ptr, ptr %62, i64 %64
  store ptr %61, ptr %65, align 8, !tbaa !62
  br label %66

66:                                               ; preds = %56
  %67 = load i32, ptr %1, align 4, !tbaa !10
  %68 = add nsw i32 %67, 1
  store i32 %68, ptr %1, align 4, !tbaa !10
  br label %52, !llvm.loop !90

69:                                               ; preds = %52
  %70 = load i32, ptr @maxQueuePages, align 4, !tbaa !10
  %71 = add nsw i32 %70, 128
  store i32 %71, ptr @maxQueuePages, align 4, !tbaa !10
  %72 = load ptr, ptr @queuePages, align 8, !tbaa !60
  %73 = icmp ne ptr %72, null
  br i1 %73, label %74, label %76

74:                                               ; preds = %69
  %75 = load ptr, ptr @queuePages, align 8, !tbaa !60
  call void @free(ptr noundef %75) #5
  store ptr null, ptr @queuePages, align 8, !tbaa !60
  br label %77

76:                                               ; preds = %69
  br label %77

77:                                               ; preds = %76, %74
  %78 = load ptr, ptr %2, align 8, !tbaa !60
  store ptr %78, ptr @queuePages, align 8, !tbaa !60
  br label %79

79:                                               ; preds = %77
  br label %80

80:                                               ; preds = %79, %0
  %81 = load i32, ptr @queuePageSize, align 4, !tbaa !10
  %82 = sext i32 %81 to i64
  %83 = mul i64 8, %82
  %84 = call noalias ptr @malloc(i64 noundef %83) #6
  %85 = load ptr, ptr @queuePages, align 8, !tbaa !60
  %86 = load i32, ptr @queuePage, align 4, !tbaa !10
  %87 = sext i32 %86 to i64
  %88 = getelementptr inbounds ptr, ptr %85, i64 %87
  store ptr %84, ptr %88, align 8, !tbaa !62
  store ptr %84, ptr @currentQueuePage, align 8, !tbaa !62
  %89 = load ptr, ptr @currentQueuePage, align 8, !tbaa !62
  %90 = icmp eq ptr %89, null
  br i1 %90, label %91, label %125

91:                                               ; preds = %80
  store i32 0, ptr %1, align 4, !tbaa !10
  br label %92

92:                                               ; preds = %115, %91
  %93 = load i32, ptr %1, align 4, !tbaa !10
  %94 = load i32, ptr @queuePage, align 4, !tbaa !10
  %95 = icmp slt i32 %93, %94
  br i1 %95, label %96, label %118

96:                                               ; preds = %92
  %97 = load ptr, ptr @queuePages, align 8, !tbaa !60
  %98 = load i32, ptr %1, align 4, !tbaa !10
  %99 = sext i32 %98 to i64
  %100 = getelementptr inbounds ptr, ptr %97, i64 %99
  %101 = load ptr, ptr %100, align 8, !tbaa !62
  %102 = icmp ne ptr %101, null
  br i1 %102, label %103, label %113

103:                                              ; preds = %96
  %104 = load ptr, ptr @queuePages, align 8, !tbaa !60
  %105 = load i32, ptr %1, align 4, !tbaa !10
  %106 = sext i32 %105 to i64
  %107 = getelementptr inbounds ptr, ptr %104, i64 %106
  %108 = load ptr, ptr %107, align 8, !tbaa !62
  call void @free(ptr noundef %108) #5
  %109 = load ptr, ptr @queuePages, align 8, !tbaa !60
  %110 = load i32, ptr %1, align 4, !tbaa !10
  %111 = sext i32 %110 to i64
  %112 = getelementptr inbounds ptr, ptr %109, i64 %111
  store ptr null, ptr %112, align 8, !tbaa !62
  br label %114

113:                                              ; preds = %96
  br label %114

114:                                              ; preds = %113, %103
  br label %115

115:                                              ; preds = %114
  %116 = load i32, ptr %1, align 4, !tbaa !10
  %117 = add nsw i32 %116, 1
  store i32 %117, ptr %1, align 4, !tbaa !10
  br label %92, !llvm.loop !91

118:                                              ; preds = %92
  %119 = load ptr, ptr @queuePages, align 8, !tbaa !60
  %120 = icmp ne ptr %119, null
  br i1 %120, label %121, label %123

121:                                              ; preds = %118
  %122 = load ptr, ptr @queuePages, align 8, !tbaa !60
  call void @free(ptr noundef %122) #5
  store ptr null, ptr @queuePages, align 8, !tbaa !60
  br label %124

123:                                              ; preds = %118
  br label %124

124:                                              ; preds = %123, %121
  store i32 1, ptr @memOut, align 4, !tbaa !10
  store i32 1, ptr %3, align 4
  br label %126

125:                                              ; preds = %80
  store i32 0, ptr @queuePageIndex, align 4, !tbaa !10
  store i32 1, ptr %3, align 4
  br label %126

126:                                              ; preds = %125, %124, %50
  call void @llvm.lifetime.end.p0(i64 8, ptr %2) #5
  call void @llvm.lifetime.end.p0(i64 4, ptr %1) #5
  ret void
}