; Function Attrs: nounwind uwtable
define internal fastcc void @ResizeQueuePages() unnamed_addr #0 {
  %1 = load i32, ptr @queuePage, align 4, !tbaa !31
  %2 = add nsw i32 %1, 1
  store i32 %2, ptr @queuePage, align 4, !tbaa !31
  %3 = load i32, ptr @maxQueuePages, align 4, !tbaa !31
  %4 = icmp eq i32 %2, %3
  br i1 %4, label %5, label %._crit_edge52

._crit_edge52:                                    ; preds = %0
  %.pre53 = load ptr, ptr @queuePages, align 8, !tbaa !36
  br label %24

5:                                                ; preds = %0
  %6 = add nsw i32 %1, 129
  %7 = sext i32 %6 to i64
  %8 = shl nsw i64 %7, 3
  %9 = tail call noalias ptr @malloc(i64 noundef %8) #10
  %10 = icmp eq ptr %9, null
  %.pre54 = load ptr, ptr @queuePages, align 8, !tbaa !36
  br i1 %10, label %.preheader, label %.preheader31

.preheader31:                                     ; preds = %5
  %11 = icmp sgt i32 %1, -1
  br i1 %11, label %.lr.ph, label %._crit_edge

.lr.ph:                                           ; preds = %.preheader31
  %wide.trip.count = zext nneg i32 %2 to i64
  br label %18

.preheader:                                       ; preds = %5
  %.not2937 = icmp slt i32 %1, 0
  br i1 %.not2937, label %._crit_edge40, label %.lr.ph39

.lr.ph39:                                         ; preds = %.preheader
  %wide.trip.count50 = zext nneg i32 %2 to i64
  br label %12

12:                                               ; preds = %.lr.ph39, %16
  %indvars.iv47 = phi i64 [ 0, %.lr.ph39 ], [ %indvars.iv.next48, %16 ]
  %13 = getelementptr inbounds nuw ptr, ptr %.pre54, i64 %indvars.iv47
  %14 = load ptr, ptr %13, align 8, !tbaa !38
  %.not27 = icmp eq ptr %14, null
  br i1 %.not27, label %16, label %15

15:                                               ; preds = %12
  tail call void @free(ptr noundef nonnull %14) #9
  store ptr null, ptr %13, align 8, !tbaa !38
  br label %16

16:                                               ; preds = %15, %12
  %indvars.iv.next48 = add nuw nsw i64 %indvars.iv47, 1
  %exitcond51.not = icmp eq i64 %indvars.iv.next48, %wide.trip.count50
  br i1 %exitcond51.not, label %._crit_edge40.thread, label %12, !llvm.loop !75

._crit_edge40:                                    ; preds = %.preheader
  %.not26 = icmp eq ptr %.pre54, null
  br i1 %.not26, label %17, label %._crit_edge40.thread

._crit_edge40.thread:                             ; preds = %16, %._crit_edge40
  tail call void @free(ptr noundef nonnull %.pre54) #9
  store ptr null, ptr @queuePages, align 8, !tbaa !36
  br label %17

17:                                               ; preds = %._crit_edge40, %._crit_edge40.thread
  store i1 true, ptr @memOut, align 4
  br label %35

18:                                               ; preds = %.lr.ph, %18
  %indvars.iv = phi i64 [ 0, %.lr.ph ], [ %indvars.iv.next, %18 ]
  %19 = getelementptr inbounds nuw ptr, ptr %.pre54, i64 %indvars.iv
  %20 = load ptr, ptr %19, align 8, !tbaa !38
  %21 = getelementptr inbounds nuw ptr, ptr %9, i64 %indvars.iv
  store ptr %20, ptr %21, align 8, !tbaa !38
  %indvars.iv.next = add nuw nsw i64 %indvars.iv, 1
  %exitcond.not = icmp eq i64 %indvars.iv.next, %wide.trip.count
  br i1 %exitcond.not, label %._crit_edge.thread, label %18, !llvm.loop !76

._crit_edge.thread:                               ; preds = %18
  store i32 %6, ptr @maxQueuePages, align 4, !tbaa !31
  br label %22

._crit_edge:                                      ; preds = %.preheader31
  store i32 %6, ptr @maxQueuePages, align 4, !tbaa !31
  %.not = icmp eq ptr %.pre54, null
  br i1 %.not, label %23, label %22

22:                                               ; preds = %._crit_edge.thread, %._crit_edge
  tail call void @free(ptr noundef nonnull %.pre54) #9
  br label %23

23:                                               ; preds = %._crit_edge, %22
  store ptr %9, ptr @queuePages, align 8, !tbaa !36
  br label %24

24:                                               ; preds = %._crit_edge52, %23
  %25 = phi ptr [ %.pre53, %._crit_edge52 ], [ %9, %23 ]
  %26 = tail call noalias dereferenceable_or_null(16384) ptr @malloc(i64 noundef 16384) #10
  %27 = sext i32 %2 to i64
  %28 = getelementptr inbounds ptr, ptr %25, i64 %27
  store ptr %26, ptr %28, align 8, !tbaa !38
  store ptr %26, ptr @currentQueuePage, align 8, !tbaa !38
  %29 = icmp eq ptr %26, null
  br i1 %29, label %.preheader30, label %34

.preheader30:                                     ; preds = %24
  %.not2833 = icmp slt i32 %1, 0
  br i1 %.not2833, label %._crit_edge36, label %.lr.ph35.preheader

.lr.ph35.preheader:                               ; preds = %.preheader30
  %wide.trip.count45 = zext nneg i32 %2 to i64
  br label %.lr.ph35

.lr.ph35:                                         ; preds = %.lr.ph35.preheader, %33
  %indvars.iv42 = phi i64 [ 0, %.lr.ph35.preheader ], [ %indvars.iv.next43, %33 ]
  %30 = getelementptr inbounds nuw ptr, ptr %25, i64 %indvars.iv42
  %31 = load ptr, ptr %30, align 8, !tbaa !38
  %.not25 = icmp eq ptr %31, null
  br i1 %.not25, label %33, label %32

32:                                               ; preds = %.lr.ph35
  tail call void @free(ptr noundef nonnull %31) #9
  store ptr null, ptr %30, align 8, !tbaa !38
  br label %33

33:                                               ; preds = %32, %.lr.ph35
  %indvars.iv.next43 = add nuw nsw i64 %indvars.iv42, 1
  %exitcond46.not = icmp eq i64 %indvars.iv.next43, %wide.trip.count45
  br i1 %exitcond46.not, label %._crit_edge36, label %.lr.ph35, !llvm.loop !77

._crit_edge36:                                    ; preds = %33, %.preheader30
  tail call void @free(ptr noundef nonnull %25) #9
  store ptr null, ptr @queuePages, align 8, !tbaa !36
  store i1 true, ptr @memOut, align 4
  br label %35

34:                                               ; preds = %24
  store i32 0, ptr @queuePageIndex, align 4, !tbaa !31
  br label %35

35:                                               ; preds = %34, %._crit_edge36, %17
  ret void
}